; Listing generated by Microsoft (R) Optimizing Compiler Version 19.39.33523.0 

	TITLE	C:\Users\olafj\Desktop\Studies\SEMESTER III\Computer Architecture\Assembler_lab3\Assembler_lab3\Debug\Source.obj
	.686P
	.XMM
	include listing.inc
	.model	flat

INCLUDELIB MSVCRTD
INCLUDELIB OLDNAMES

msvcjmc	SEGMENT
__FE09AF47_concurrencysal@h DB 01H
__C073CA79_sal@h DB 01H
__D6AFE870_vadefs@h DB 01H
__D63E96CF_vcruntime@h DB 01H
__04C75F1C_corecrt@h DB 01H
__C44F8F6B_corecrt_stdio_config@h DB 01H
__A7F89B2B_corecrt_wstdio@h DB 01H
__B5C48800_stdio@h DB 01H
__5EC6D274_Source@c DB 01H
msvcjmc	ENDS
PUBLIC	___local_stdio_printf_options
PUBLIC	__vfprintf_l
PUBLIC	_printf
PUBLIC	_main
PUBLIC	__JustMyCode_Default
PUBLIC	??_C@_03JDANDILB@?$CFd?5@			; `string'
PUBLIC	??_C@_01EEMJAFIK@?6@				; `string'
PUBLIC	??_C@_0BI@PKOBBMEB@?5Posortowana?5tablica?3?5?6@ ; `string'
EXTRN	__imp____acrt_iob_func:PROC
EXTRN	__imp____stdio_common_vfprintf:PROC
EXTRN	_przestaw:PROC
EXTRN	@_RTC_CheckStackVars@8:PROC
EXTRN	@__CheckForDebuggerJustMyCode@4:PROC
EXTRN	@__security_check_cookie@4:PROC
EXTRN	__RTC_CheckEsp:PROC
EXTRN	__RTC_InitBase:PROC
EXTRN	__RTC_Shutdown:PROC
EXTRN	___security_cookie:DWORD
_DATA	SEGMENT
COMM	?_OptionsStorage@?1??__local_stdio_printf_options@@9@9:QWORD							; `__local_stdio_printf_options'::`2'::_OptionsStorage
_DATA	ENDS
;	COMDAT rtc$TMZ
rtc$TMZ	SEGMENT
__RTC_Shutdown.rtc$TMZ DD FLAT:__RTC_Shutdown
rtc$TMZ	ENDS
;	COMDAT rtc$IMZ
rtc$IMZ	SEGMENT
__RTC_InitBase.rtc$IMZ DD FLAT:__RTC_InitBase
rtc$IMZ	ENDS
;	COMDAT ??_C@_0BI@PKOBBMEB@?5Posortowana?5tablica?3?5?6@
CONST	SEGMENT
??_C@_0BI@PKOBBMEB@?5Posortowana?5tablica?3?5?6@ DB ' Posortowana tablica'
	DB	': ', 0aH, 00H				; `string'
CONST	ENDS
;	COMDAT ??_C@_01EEMJAFIK@?6@
CONST	SEGMENT
??_C@_01EEMJAFIK@?6@ DB 0aH, 00H			; `string'
CONST	ENDS
;	COMDAT ??_C@_03JDANDILB@?$CFd?5@
CONST	SEGMENT
??_C@_03JDANDILB@?$CFd?5@ DB '%d ', 00H			; `string'
CONST	ENDS
;	COMDAT voltbl
voltbl	SEGMENT
_volmd	DW	022H
	DW	014aH
voltbl	ENDS
; Function compile flags: /Odt
;	COMDAT __JustMyCode_Default
_TEXT	SEGMENT
__JustMyCode_Default PROC				; COMDAT
  00000	55		 push	 ebp
  00001	8b ec		 mov	 ebp, esp
  00003	5d		 pop	 ebp
  00004	c3		 ret	 0
__JustMyCode_Default ENDP
_TEXT	ENDS
; Function compile flags: /Odtp /RTCsu /ZI
; File C:\Users\olafj\Desktop\Studies\SEMESTER III\Computer Architecture\Assembler_lab3\Assembler_lab3\Source.c
;	COMDAT _main
_TEXT	SEGMENT
_i$1 = -104						; size = 4
_i$2 = -92						; size = 4
_i$3 = -80						; size = 4
_length$ = -68						; size = 4
_tab$ = -56						; size = 48
__$ArrayPad$ = -4					; size = 4
_main	PROC						; COMDAT

; 10   : {

  00000	55		 push	 ebp
  00001	8b ec		 mov	 ebp, esp
  00003	81 ec 2c 01 00
	00		 sub	 esp, 300		; 0000012cH
  00009	53		 push	 ebx
  0000a	56		 push	 esi
  0000b	57		 push	 edi
  0000c	8d 7d 94	 lea	 edi, DWORD PTR [ebp-108]
  0000f	b9 1b 00 00 00	 mov	 ecx, 27			; 0000001bH
  00014	b8 cc cc cc cc	 mov	 eax, -858993460		; ccccccccH
  00019	f3 ab		 rep stosd
  0001b	a1 00 00 00 00	 mov	 eax, DWORD PTR ___security_cookie
  00020	33 c5		 xor	 eax, ebp
  00022	89 45 fc	 mov	 DWORD PTR __$ArrayPad$[ebp], eax
  00025	b9 00 00 00 00	 mov	 ecx, OFFSET __5EC6D274_Source@c
  0002a	e8 00 00 00 00	 call	 @__CheckForDebuggerJustMyCode@4

; 11   : 	// Zadanie 4.1 //
; 12   : 
; 13   : 	/*int a, b, c, d, wynik;
; 14   : 	printf("\nProsze podac cztery liczby calkowite ze znakiem: ");
; 15   : 	scanf_s("%d %d %d %d", &a, &b, &c, &d);
; 16   : 	wynik = szukaj_max_cztery(a, b, c, d);
; 17   : 	printf("\nSposrod podanych liczb %d, %d, %d, %d liczba %d jest najwieksza\n", a, b, c, d,  wynik);
; 18   : 	return 0;*/
; 19   : 
; 20   : 	// Zadanie 4.2 //
; 21   : 
; 22   : 	/*int m;
; 23   : 	m = -17;
; 24   : 	liczba_przeciwna(&m);
; 25   : 	printf("\n m = %d\n", m);*/
; 26   : 
; 27   : 	// Zadanie 4.3 //
; 28   : 
; 29   : 	/*int k;
; 30   : 	int* wsk;
; 31   : 	wsk = &k;
; 32   : 	printf("\nProsze napisac liczbe: ");
; 33   : 	scanf_s("%d", &k, 12);
; 34   : 	odejmij_jeden(&wsk);
; 35   : 	printf("\nWynik = %d\n", k);*/
; 36   : 
; 37   : 	// Zadanie 4.4 //
; 38   : 	int tab[12] = { 12,11,10,9,8,7,6,5,4,3,2,1 };

  0002f	c7 45 c8 0c 00
	00 00		 mov	 DWORD PTR _tab$[ebp], 12 ; 0000000cH
  00036	c7 45 cc 0b 00
	00 00		 mov	 DWORD PTR _tab$[ebp+4], 11 ; 0000000bH
  0003d	c7 45 d0 0a 00
	00 00		 mov	 DWORD PTR _tab$[ebp+8], 10 ; 0000000aH
  00044	c7 45 d4 09 00
	00 00		 mov	 DWORD PTR _tab$[ebp+12], 9
  0004b	c7 45 d8 08 00
	00 00		 mov	 DWORD PTR _tab$[ebp+16], 8
  00052	c7 45 dc 07 00
	00 00		 mov	 DWORD PTR _tab$[ebp+20], 7
  00059	c7 45 e0 06 00
	00 00		 mov	 DWORD PTR _tab$[ebp+24], 6
  00060	c7 45 e4 05 00
	00 00		 mov	 DWORD PTR _tab$[ebp+28], 5
  00067	c7 45 e8 04 00
	00 00		 mov	 DWORD PTR _tab$[ebp+32], 4
  0006e	c7 45 ec 03 00
	00 00		 mov	 DWORD PTR _tab$[ebp+36], 3
  00075	c7 45 f0 02 00
	00 00		 mov	 DWORD PTR _tab$[ebp+40], 2
  0007c	c7 45 f4 01 00
	00 00		 mov	 DWORD PTR _tab$[ebp+44], 1

; 39   : 	int length = 12;

  00083	c7 45 bc 0c 00
	00 00		 mov	 DWORD PTR _length$[ebp], 12 ; 0000000cH

; 40   : 	for (int i = 0; i < (sizeof(tab) / sizeof(tab[0])); i++)

  0008a	c7 45 b0 00 00
	00 00		 mov	 DWORD PTR _i$3[ebp], 0
  00091	eb 09		 jmp	 SHORT $LN4@main
$LN2@main:
  00093	8b 45 b0	 mov	 eax, DWORD PTR _i$3[ebp]
  00096	83 c0 01	 add	 eax, 1
  00099	89 45 b0	 mov	 DWORD PTR _i$3[ebp], eax
$LN4@main:
  0009c	83 7d b0 0c	 cmp	 DWORD PTR _i$3[ebp], 12	; 0000000cH
  000a0	73 17		 jae	 SHORT $LN3@main

; 41   : 	{
; 42   : 		printf("%d ", tab[i]);

  000a2	8b 45 b0	 mov	 eax, DWORD PTR _i$3[ebp]
  000a5	8b 4c 85 c8	 mov	 ecx, DWORD PTR _tab$[ebp+eax*4]
  000a9	51		 push	 ecx
  000aa	68 00 00 00 00	 push	 OFFSET ??_C@_03JDANDILB@?$CFd?5@
  000af	e8 00 00 00 00	 call	 _printf
  000b4	83 c4 08	 add	 esp, 8

; 43   : 	}

  000b7	eb da		 jmp	 SHORT $LN2@main
$LN3@main:

; 44   : 	printf("\n");

  000b9	68 00 00 00 00	 push	 OFFSET ??_C@_01EEMJAFIK@?6@
  000be	e8 00 00 00 00	 call	 _printf
  000c3	83 c4 04	 add	 esp, 4

; 45   : 	for (int i = 0; i < length - 1 ; i++)

  000c6	c7 45 a4 00 00
	00 00		 mov	 DWORD PTR _i$2[ebp], 0
  000cd	eb 09		 jmp	 SHORT $LN7@main
$LN5@main:
  000cf	8b 45 a4	 mov	 eax, DWORD PTR _i$2[ebp]
  000d2	83 c0 01	 add	 eax, 1
  000d5	89 45 a4	 mov	 DWORD PTR _i$2[ebp], eax
$LN7@main:
  000d8	8b 45 bc	 mov	 eax, DWORD PTR _length$[ebp]
  000db	83 e8 01	 sub	 eax, 1
  000de	39 45 a4	 cmp	 DWORD PTR _i$2[ebp], eax
  000e1	7d 15		 jge	 SHORT $LN6@main

; 46   : 	{
; 47   : 		przestaw(tab, (length - i));

  000e3	8b 45 bc	 mov	 eax, DWORD PTR _length$[ebp]
  000e6	2b 45 a4	 sub	 eax, DWORD PTR _i$2[ebp]
  000e9	50		 push	 eax
  000ea	8d 4d c8	 lea	 ecx, DWORD PTR _tab$[ebp]
  000ed	51		 push	 ecx
  000ee	e8 00 00 00 00	 call	 _przestaw
  000f3	83 c4 08	 add	 esp, 8

; 48   : 	}

  000f6	eb d7		 jmp	 SHORT $LN5@main
$LN6@main:

; 49   : 	printf(" Posortowana tablica: \n");

  000f8	68 00 00 00 00	 push	 OFFSET ??_C@_0BI@PKOBBMEB@?5Posortowana?5tablica?3?5?6@
  000fd	e8 00 00 00 00	 call	 _printf
  00102	83 c4 04	 add	 esp, 4

; 50   : 	for (int i = 0; i < (sizeof(tab) / sizeof(tab[0])); i++)

  00105	c7 45 98 00 00
	00 00		 mov	 DWORD PTR _i$1[ebp], 0
  0010c	eb 09		 jmp	 SHORT $LN10@main
$LN8@main:
  0010e	8b 45 98	 mov	 eax, DWORD PTR _i$1[ebp]
  00111	83 c0 01	 add	 eax, 1
  00114	89 45 98	 mov	 DWORD PTR _i$1[ebp], eax
$LN10@main:
  00117	83 7d 98 0c	 cmp	 DWORD PTR _i$1[ebp], 12	; 0000000cH
  0011b	73 17		 jae	 SHORT $LN9@main

; 51   : 	{
; 52   : 		printf("%d ", tab[i]);

  0011d	8b 45 98	 mov	 eax, DWORD PTR _i$1[ebp]
  00120	8b 4c 85 c8	 mov	 ecx, DWORD PTR _tab$[ebp+eax*4]
  00124	51		 push	 ecx
  00125	68 00 00 00 00	 push	 OFFSET ??_C@_03JDANDILB@?$CFd?5@
  0012a	e8 00 00 00 00	 call	 _printf
  0012f	83 c4 08	 add	 esp, 8

; 53   : 	}

  00132	eb da		 jmp	 SHORT $LN8@main
$LN9@main:

; 54   : 
; 55   : 	return 0;

  00134	33 c0		 xor	 eax, eax

; 56   : }

  00136	52		 push	 edx
  00137	8b cd		 mov	 ecx, ebp
  00139	50		 push	 eax
  0013a	8d 15 00 00 00
	00		 lea	 edx, DWORD PTR $LN14@main
  00140	e8 00 00 00 00	 call	 @_RTC_CheckStackVars@8
  00145	58		 pop	 eax
  00146	5a		 pop	 edx
  00147	5f		 pop	 edi
  00148	5e		 pop	 esi
  00149	5b		 pop	 ebx
  0014a	8b 4d fc	 mov	 ecx, DWORD PTR __$ArrayPad$[ebp]
  0014d	33 cd		 xor	 ecx, ebp
  0014f	e8 00 00 00 00	 call	 @__security_check_cookie@4
  00154	81 c4 2c 01 00
	00		 add	 esp, 300		; 0000012cH
  0015a	3b ec		 cmp	 ebp, esp
  0015c	e8 00 00 00 00	 call	 __RTC_CheckEsp
  00161	8b e5		 mov	 esp, ebp
  00163	5d		 pop	 ebp
  00164	c3		 ret	 0
  00165	0f 1f 00	 npad	 3
$LN14@main:
  00168	01 00 00 00	 DD	 1
  0016c	00 00 00 00	 DD	 $LN13@main
$LN13@main:
  00170	c8 ff ff ff	 DD	 -56			; ffffffc8H
  00174	30 00 00 00	 DD	 48			; 00000030H
  00178	00 00 00 00	 DD	 $LN12@main
$LN12@main:
  0017c	74		 DB	 116			; 00000074H
  0017d	61		 DB	 97			; 00000061H
  0017e	62		 DB	 98			; 00000062H
  0017f	00		 DB	 0
_main	ENDP
_TEXT	ENDS
; Function compile flags: /Odtp /RTCsu /ZI
; File C:\Program Files (x86)\Windows Kits\10\Include\10.0.22000.0\ucrt\stdio.h
;	COMDAT _printf
_TEXT	SEGMENT
__ArgList$ = -20					; size = 4
__Result$ = -8						; size = 4
__Format$ = 8						; size = 4
_printf	PROC						; COMDAT

; 956  :     {

  00000	55		 push	 ebp
  00001	8b ec		 mov	 ebp, esp
  00003	81 ec d8 00 00
	00		 sub	 esp, 216		; 000000d8H
  00009	53		 push	 ebx
  0000a	56		 push	 esi
  0000b	57		 push	 edi
  0000c	8d 7d e8	 lea	 edi, DWORD PTR [ebp-24]
  0000f	b9 06 00 00 00	 mov	 ecx, 6
  00014	b8 cc cc cc cc	 mov	 eax, -858993460		; ccccccccH
  00019	f3 ab		 rep stosd
  0001b	b9 00 00 00 00	 mov	 ecx, OFFSET __B5C48800_stdio@h
  00020	e8 00 00 00 00	 call	 @__CheckForDebuggerJustMyCode@4

; 957  :         int _Result;
; 958  :         va_list _ArgList;
; 959  :         __crt_va_start(_ArgList, _Format);

  00025	8d 45 0c	 lea	 eax, DWORD PTR __Format$[ebp+4]
  00028	89 45 ec	 mov	 DWORD PTR __ArgList$[ebp], eax

; 960  :         _Result = _vfprintf_l(stdout, _Format, NULL, _ArgList);

  0002b	8b 45 ec	 mov	 eax, DWORD PTR __ArgList$[ebp]
  0002e	50		 push	 eax
  0002f	6a 00		 push	 0
  00031	8b 4d 08	 mov	 ecx, DWORD PTR __Format$[ebp]
  00034	51		 push	 ecx
  00035	8b f4		 mov	 esi, esp
  00037	6a 01		 push	 1
  00039	ff 15 00 00 00
	00		 call	 DWORD PTR __imp____acrt_iob_func
  0003f	83 c4 04	 add	 esp, 4
  00042	3b f4		 cmp	 esi, esp
  00044	e8 00 00 00 00	 call	 __RTC_CheckEsp
  00049	50		 push	 eax
  0004a	e8 00 00 00 00	 call	 __vfprintf_l
  0004f	83 c4 10	 add	 esp, 16			; 00000010H
  00052	89 45 f8	 mov	 DWORD PTR __Result$[ebp], eax

; 961  :         __crt_va_end(_ArgList);

  00055	c7 45 ec 00 00
	00 00		 mov	 DWORD PTR __ArgList$[ebp], 0

; 962  :         return _Result;

  0005c	8b 45 f8	 mov	 eax, DWORD PTR __Result$[ebp]

; 963  :     }

  0005f	5f		 pop	 edi
  00060	5e		 pop	 esi
  00061	5b		 pop	 ebx
  00062	81 c4 d8 00 00
	00		 add	 esp, 216		; 000000d8H
  00068	3b ec		 cmp	 ebp, esp
  0006a	e8 00 00 00 00	 call	 __RTC_CheckEsp
  0006f	8b e5		 mov	 esp, ebp
  00071	5d		 pop	 ebp
  00072	c3		 ret	 0
_printf	ENDP
_TEXT	ENDS
; Function compile flags: /Odtp /RTCsu /ZI
; File C:\Program Files (x86)\Windows Kits\10\Include\10.0.22000.0\ucrt\stdio.h
;	COMDAT __vfprintf_l
_TEXT	SEGMENT
__Stream$ = 8						; size = 4
__Format$ = 12						; size = 4
__Locale$ = 16						; size = 4
__ArgList$ = 20						; size = 4
__vfprintf_l PROC					; COMDAT

; 644  :     {

  00000	55		 push	 ebp
  00001	8b ec		 mov	 ebp, esp
  00003	81 ec c0 00 00
	00		 sub	 esp, 192		; 000000c0H
  00009	53		 push	 ebx
  0000a	56		 push	 esi
  0000b	57		 push	 edi
  0000c	8b fd		 mov	 edi, ebp
  0000e	33 c9		 xor	 ecx, ecx
  00010	b8 cc cc cc cc	 mov	 eax, -858993460		; ccccccccH
  00015	f3 ab		 rep stosd
  00017	b9 00 00 00 00	 mov	 ecx, OFFSET __B5C48800_stdio@h
  0001c	e8 00 00 00 00	 call	 @__CheckForDebuggerJustMyCode@4

; 645  :         return __stdio_common_vfprintf(_CRT_INTERNAL_LOCAL_PRINTF_OPTIONS, _Stream, _Format, _Locale, _ArgList);

  00021	8b f4		 mov	 esi, esp
  00023	8b 45 14	 mov	 eax, DWORD PTR __ArgList$[ebp]
  00026	50		 push	 eax
  00027	8b 4d 10	 mov	 ecx, DWORD PTR __Locale$[ebp]
  0002a	51		 push	 ecx
  0002b	8b 55 0c	 mov	 edx, DWORD PTR __Format$[ebp]
  0002e	52		 push	 edx
  0002f	8b 45 08	 mov	 eax, DWORD PTR __Stream$[ebp]
  00032	50		 push	 eax
  00033	e8 00 00 00 00	 call	 ___local_stdio_printf_options
  00038	8b 48 04	 mov	 ecx, DWORD PTR [eax+4]
  0003b	51		 push	 ecx
  0003c	8b 10		 mov	 edx, DWORD PTR [eax]
  0003e	52		 push	 edx
  0003f	ff 15 00 00 00
	00		 call	 DWORD PTR __imp____stdio_common_vfprintf
  00045	83 c4 18	 add	 esp, 24			; 00000018H
  00048	3b f4		 cmp	 esi, esp
  0004a	e8 00 00 00 00	 call	 __RTC_CheckEsp

; 646  :     }

  0004f	5f		 pop	 edi
  00050	5e		 pop	 esi
  00051	5b		 pop	 ebx
  00052	81 c4 c0 00 00
	00		 add	 esp, 192		; 000000c0H
  00058	3b ec		 cmp	 ebp, esp
  0005a	e8 00 00 00 00	 call	 __RTC_CheckEsp
  0005f	8b e5		 mov	 esp, ebp
  00061	5d		 pop	 ebp
  00062	c3		 ret	 0
__vfprintf_l ENDP
_TEXT	ENDS
; Function compile flags: /Odtp /RTCsu /ZI
; File C:\Program Files (x86)\Windows Kits\10\Include\10.0.22000.0\ucrt\corecrt_stdio_config.h
;	COMDAT ___local_stdio_printf_options
_TEXT	SEGMENT
___local_stdio_printf_options PROC			; COMDAT

; 90   :     {

  00000	55		 push	 ebp
  00001	8b ec		 mov	 ebp, esp
  00003	81 ec c0 00 00
	00		 sub	 esp, 192		; 000000c0H
  00009	53		 push	 ebx
  0000a	56		 push	 esi
  0000b	57		 push	 edi
  0000c	8b fd		 mov	 edi, ebp
  0000e	33 c9		 xor	 ecx, ecx
  00010	b8 cc cc cc cc	 mov	 eax, -858993460		; ccccccccH
  00015	f3 ab		 rep stosd
  00017	b9 00 00 00 00	 mov	 ecx, OFFSET __C44F8F6B_corecrt_stdio_config@h
  0001c	e8 00 00 00 00	 call	 @__CheckForDebuggerJustMyCode@4

; 91   :         static unsigned __int64 _OptionsStorage;
; 92   :         return &_OptionsStorage;

  00021	b8 00 00 00 00	 mov	 eax, OFFSET ?_OptionsStorage@?1??__local_stdio_printf_options@@9@9 ; `__local_stdio_printf_options'::`2'::_OptionsStorage

; 93   :     }

  00026	5f		 pop	 edi
  00027	5e		 pop	 esi
  00028	5b		 pop	 ebx
  00029	81 c4 c0 00 00
	00		 add	 esp, 192		; 000000c0H
  0002f	3b ec		 cmp	 ebp, esp
  00031	e8 00 00 00 00	 call	 __RTC_CheckEsp
  00036	8b e5		 mov	 esp, ebp
  00038	5d		 pop	 ebp
  00039	c3		 ret	 0
___local_stdio_printf_options ENDP
_TEXT	ENDS
END
